target datalayout = "e-m:e-p270:32:32-p271:32:32-p272:64:64-i64:64-i128:128-f80:128-n8:16:32:64-S128"
target triple = "x86_64-pc-linux-gnu"

%struct.attrs_t = type { ptr, i64, i64, i64 }
%struct.gmledge = type { ptr, ptr, %struct.attrs_t }

; Function Attrs: nounwind uwtable
define dso_local void @free_edge(ptr noundef %0) #0 {
  %2 = alloca ptr, align 8
  store ptr %0, ptr %2, align 8, !tbaa !4
  %3 = load ptr, ptr %2, align 8, !tbaa !4
  %4 = icmp ne ptr %3, null
  br i1 %4, label %6, label %5

5:                                                ; preds = %1
  br label %10

6:                                                ; preds = %1
  %7 = load ptr, ptr %2, align 8, !tbaa !4
  %8 = getelementptr inbounds nuw %struct.gmledge, ptr %7, i32 0, i32 2
  call void @attrs_free(ptr noundef %8)
  %9 = load ptr, ptr %2, align 8, !tbaa !4
  call void @free(ptr noundef %9) #15
  br label %10

10:                                               ; preds = %6, %5
  ret void
}